target datalayout = "e-m:e-p270:32:32-p271:32:32-p272:64:64-i64:64-i128:128-f80:128-n8:16:32:64-S128"
target triple = "x86_64-pc-linux-gnu"

%struct.iter_t = type { ptr, i64, i64, i8, ptr, i64, i64 }
%struct.h5tools_str_t = type { ptr, i64, i64 }
%struct.h5tools_context_t = type { i64, i64, i32, i32, [32 x i64], [32 x i64], i32, i64, i32, i64, i32, i32, [32 x i64], [32 x i64], i64, ptr, ptr, i32, i32 }
%struct.h5tool_format_t = type { i8, ptr, ptr, ptr, ptr, ptr, ptr, ptr, ptr, ptr, ptr, ptr, ptr, ptr, ptr, ptr, ptr, ptr, i32, i32, i32, ptr, ptr, ptr, i32, ptr, ptr, ptr, ptr, ptr, ptr, ptr, ptr, ptr, ptr, ptr, ptr, ptr, ptr, ptr, ptr, i32, i64, ptr, ptr, ptr, ptr, ptr, i32, ptr, i32, i32, ptr, i32, ptr, ptr, ptr, ptr, i32, i32 }
%struct.H5O_info2_t = type { i64, %struct.H5O_token_t, i32, i32, i64, i64, i64, i64, i64 }
%struct.H5O_token_t = type { [16 x i8] }

@fullname_g = internal global i8 0, align 1
@grp_literal_g = internal global i8 0, align 1
@recursive_g = internal global i8 0, align 1
@show_file_name_g = internal global i8 0, align 1
@rawoutstream = external global ptr, align 8
@display_root_g = internal global i8 0, align 1
@.str.45 = private unnamed_addr constant [14 x i8] c"**NOT FOUND**\00", align 1
@print_obj_name.fullname = internal global [2048 x i8] zeroinitializer, align 16
@.str.338 = private unnamed_addr constant [6 x i8] c"%s/%s\00", align 1
@.str.339 = private unnamed_addr constant [5 x i8] c"%*s \00", align 1
@.str.340 = private unnamed_addr constant [17 x i8] c"{**NOT FOUND**}\0A\00", align 1
@.str.341 = private unnamed_addr constant [34 x i8] c"%s: unable to open '%s' as group\0A\00", align 1

; Function Attrs: nounwind uwtable
define internal i32 @print_obj_name(ptr noundef %0, ptr noundef %1, ptr noundef %2, ptr noundef %3) #0 {
  %5 = alloca ptr, align 8
  %6 = alloca ptr, align 8
  %7 = alloca ptr, align 8
  %8 = alloca ptr, align 8
  %9 = alloca ptr, align 8
  %10 = alloca i32, align 4
  %11 = alloca ptr, align 8
  store ptr %0, ptr %5, align 8, !tbaa !81
  store ptr %1, ptr %6, align 8, !tbaa !83
  store ptr %2, ptr %7, align 8, !tbaa !13
  store ptr %3, ptr %8, align 8, !tbaa !13
  call void @llvm.lifetime.start.p0(i64 8, ptr %9) #12
  store ptr @print_obj_name.fullname, ptr %9, align 8, !tbaa !13
  call void @llvm.lifetime.start.p0(i64 4, ptr %10) #12
  %12 = load i8, ptr @show_file_name_g, align 1, !tbaa !15, !range !33, !noundef !34
  %13 = trunc i8 %12 to i1
  br i1 %13, label %14, label %24

14:                                               ; preds = %4
  %15 = load ptr, ptr %6, align 8, !tbaa !83
  %16 = getelementptr inbounds nuw %struct.iter_t, ptr %15, i32 0, i32 0
  %17 = load ptr, ptr %16, align 8, !tbaa !41
  %18 = load ptr, ptr %7, align 8, !tbaa !13
  %19 = load ptr, ptr %6, align 8, !tbaa !83
  %20 = getelementptr inbounds nuw %struct.iter_t, ptr %19, i32 0, i32 6
  %21 = load i64, ptr %20, align 8, !tbaa !40
  %22 = getelementptr inbounds nuw i8, ptr %18, i64 %21
  %23 = call i32 (ptr, i64, ptr, ...) @snprintf(ptr noundef @print_obj_name.fullname, i64 noundef 2048, ptr noundef @.str.338, ptr noundef %17, ptr noundef %22) #12
  br label %30

24:                                               ; preds = %4
  %25 = load ptr, ptr %7, align 8, !tbaa !13
  %26 = load ptr, ptr %6, align 8, !tbaa !83
  %27 = getelementptr inbounds nuw %struct.iter_t, ptr %26, i32 0, i32 6
  %28 = load i64, ptr %27, align 8, !tbaa !40
  %29 = getelementptr inbounds nuw i8, ptr %25, i64 %28
  store ptr %29, ptr %9, align 8, !tbaa !13
  br label %30

30:                                               ; preds = %24, %14
  %31 = load i8, ptr @fullname_g, align 1, !tbaa !15, !range !33, !noundef !34
  %32 = trunc i8 %31 to i1
  br i1 %32, label %33, label %37

33:                                               ; preds = %30
  %34 = load ptr, ptr %5, align 8, !tbaa !81
  %35 = load ptr, ptr %9, align 8, !tbaa !13
  %36 = call i32 @print_string(ptr noundef %34, ptr noundef %35, i1 noundef zeroext true)
  store i32 %36, ptr %10, align 4, !tbaa !4
  br label %50

37:                                               ; preds = %30
  call void @llvm.lifetime.start.p0(i64 8, ptr %11) #12
  %38 = load ptr, ptr %9, align 8, !tbaa !13
  %39 = call ptr @strrchr(ptr noundef %38, i32 noundef 47) #13
  store ptr %39, ptr %11, align 8, !tbaa !13
  %40 = icmp eq ptr null, %39
  br i1 %40, label %41, label %43

41:                                               ; preds = %37
  %42 = load ptr, ptr %9, align 8, !tbaa !13
  store ptr %42, ptr %11, align 8, !tbaa !13
  br label %46

43:                                               ; preds = %37
  %44 = load ptr, ptr %11, align 8, !tbaa !13
  %45 = getelementptr inbounds nuw i8, ptr %44, i32 1
  store ptr %45, ptr %11, align 8, !tbaa !13
  br label %46

46:                                               ; preds = %43, %41
  %47 = load ptr, ptr %5, align 8, !tbaa !81
  %48 = load ptr, ptr %11, align 8, !tbaa !13
  %49 = call i32 @print_string(ptr noundef %47, ptr noundef %48, i1 noundef zeroext true)
  store i32 %49, ptr %10, align 4, !tbaa !4
  call void @llvm.lifetime.end.p0(i64 8, ptr %11) #12
  br label %50

50:                                               ; preds = %46, %33
  %51 = load ptr, ptr %5, align 8, !tbaa !81
  %52 = load i32, ptr %10, align 4, !tbaa !4
  %53 = sub nsw i32 24, %52
  %54 = icmp sgt i32 0, %53
  br i1 %54, label %55, label %56

55:                                               ; preds = %50
  br label %59

56:                                               ; preds = %50
  %57 = load i32, ptr %10, align 4, !tbaa !4
  %58 = sub nsw i32 24, %57
  br label %59

59:                                               ; preds = %56, %55
  %60 = phi i32 [ 0, %55 ], [ %58, %56 ]
  %61 = load ptr, ptr %8, align 8, !tbaa !13
  %62 = call ptr (ptr, ptr, ...) @h5tools_str_append(ptr noundef %51, ptr noundef @.str.339, i32 noundef %60, ptr noundef %61)
  call void @llvm.lifetime.end.p0(i64 4, ptr %10) #12
  call void @llvm.lifetime.end.p0(i64 8, ptr %9) #12
  ret i32 1
}

; Function Attrs: nounwind uwtable
define internal i32 @visit_obj(i64 noundef %0, ptr noundef %1, ptr noundef %2) #0 {
  %4 = alloca i64, align 8
  %5 = alloca ptr, align 8
  %6 = alloca ptr, align 8
  %7 = alloca i32, align 4
  %8 = alloca %struct.H5O_info2_t, align 8
  %9 = alloca i64, align 8
  %10 = alloca %struct.h5tools_str_t, align 8
  %11 = alloca %struct.h5tools_context_t, align 8
  %12 = alloca ptr, align 8
  store i64 %0, ptr %4, align 8, !tbaa !11
  store ptr %1, ptr %5, align 8, !tbaa !13
  store ptr %2, ptr %6, align 8, !tbaa !83
  call void @llvm.lifetime.start.p0(i64 4, ptr %7) #12
  store i32 0, ptr %7, align 4, !tbaa !4
  call void @llvm.lifetime.start.p0(i64 72, ptr %8) #12
  call void @llvm.lifetime.start.p0(i64 8, ptr %9) #12
  store i64 0, ptr %9, align 8, !tbaa !11
  call void @llvm.lifetime.start.p0(i64 24, ptr %10) #12
  call void @llvm.lifetime.start.p0(i64 1120, ptr %11) #12
  call void @llvm.lifetime.start.p0(i64 8, ptr %12) #12
  store ptr @ls_dataformat, ptr %12, align 8, !tbaa !52
  call void @llvm.memset.p0.i64(ptr align 8 %11, i8 0, i64 1120, i1 false)
  call void @llvm.memset.p0.i64(ptr align 8 %10, i8 0, i64 24, i1 false)
  %13 = call ptr @h5tools_str_reset(ptr noundef %10)
  %14 = load i64, ptr %4, align 8, !tbaa !11
  %15 = load ptr, ptr %5, align 8, !tbaa !13
  %16 = call i32 @H5Oget_info_by_name3(i64 noundef %14, ptr noundef %15, ptr noundef %8, i32 noundef 3, i64 noundef 0)
  %17 = icmp slt i32 %16, 0
  br i1 %17, label %18, label %39

18:                                               ; preds = %3
  %19 = load ptr, ptr %6, align 8, !tbaa !83
  %20 = getelementptr inbounds nuw %struct.iter_t, ptr %19, i32 0, i32 3
  %21 = load i8, ptr %20, align 8, !tbaa !44, !range !33, !noundef !34
  %22 = trunc i8 %21 to i1
  br i1 %22, label %23, label %27

23:                                               ; preds = %18
  %24 = call ptr (ptr, ptr, ...) @h5tools_str_append(ptr noundef %10, ptr noundef @.str.340)
  %25 = load ptr, ptr %6, align 8, !tbaa !83
  %26 = getelementptr inbounds nuw %struct.iter_t, ptr %25, i32 0, i32 3
  store i8 0, ptr %26, align 8, !tbaa !44
  br label %31

27:                                               ; preds = %18
  %28 = load ptr, ptr %6, align 8, !tbaa !83
  %29 = load ptr, ptr %5, align 8, !tbaa !13
  %30 = call i32 @print_obj_name(ptr noundef %10, ptr noundef %28, ptr noundef %29, ptr noundef @.str.45)
  br label %31

31:                                               ; preds = %27, %23
  %32 = load ptr, ptr @rawoutstream, align 8, !tbaa !28
  %33 = load ptr, ptr %12, align 8, !tbaa !52
  %34 = load ptr, ptr %12, align 8, !tbaa !52
  %35 = getelementptr inbounds nuw %struct.h5tool_format_t, ptr %34, i32 0, i32 41
  %36 = load i32, ptr %35, align 8, !tbaa !54
  %37 = zext i32 %36 to i64
  %38 = call zeroext i1 @h5tools_render_element(ptr noundef %32, ptr noundef %33, ptr noundef %11, ptr noundef %10, ptr noundef %9, i64 noundef %37, i64 noundef 0, i64 noundef 0)
  store i32 -1, ptr %7, align 4, !tbaa !4
  br label %110

39:                                               ; preds = %3
  %40 = getelementptr inbounds nuw %struct.H5O_info2_t, ptr %8, i32 0, i32 2
  %41 = load i32, ptr %40, align 8, !tbaa !84
  %42 = icmp eq i32 0, %41
  br i1 %42, label %43, label %102

43:                                               ; preds = %39
  %44 = load i8, ptr @grp_literal_g, align 1, !tbaa !15, !range !33, !noundef !34
  %45 = trunc i8 %44 to i1
  br i1 %45, label %102, label %46

46:                                               ; preds = %43
  %47 = load ptr, ptr %6, align 8, !tbaa !83
  %48 = getelementptr inbounds nuw %struct.iter_t, ptr %47, i32 0, i32 3
  %49 = load i8, ptr %48, align 8, !tbaa !44, !range !33, !noundef !34
  %50 = trunc i8 %49 to i1
  br i1 %50, label %71, label %51

51:                                               ; preds = %46
  %52 = load i64, ptr %4, align 8, !tbaa !11
  %53 = load ptr, ptr %5, align 8, !tbaa !13
  %54 = call i64 @H5Gopen2(i64 noundef %52, ptr noundef %53, i64 noundef 0)
  %55 = load ptr, ptr %6, align 8, !tbaa !83
  %56 = getelementptr inbounds nuw %struct.iter_t, ptr %55, i32 0, i32 2
  store i64 %54, ptr %56, align 8, !tbaa !43
  %57 = icmp slt i64 %54, 0
  br i1 %57, label %58, label %71

58:                                               ; preds = %51
  %59 = load ptr, ptr %6, align 8, !tbaa !83
  %60 = getelementptr inbounds nuw %struct.iter_t, ptr %59, i32 0, i32 0
  %61 = load ptr, ptr %60, align 8, !tbaa !41
  %62 = load ptr, ptr %5, align 8, !tbaa !13
  %63 = call ptr (ptr, ptr, ...) @h5tools_str_append(ptr noundef %10, ptr noundef @.str.341, ptr noundef %61, ptr noundef %62)
  %64 = load ptr, ptr @rawoutstream, align 8, !tbaa !28
  %65 = load ptr, ptr %12, align 8, !tbaa !52
  %66 = load ptr, ptr %12, align 8, !tbaa !52
  %67 = getelementptr inbounds nuw %struct.h5tool_format_t, ptr %66, i32 0, i32 41
  %68 = load i32, ptr %67, align 8, !tbaa !54
  %69 = zext i32 %68 to i64
  %70 = call zeroext i1 @h5tools_render_element(ptr noundef %64, ptr noundef %65, ptr noundef %11, ptr noundef %10, ptr noundef %9, i64 noundef %69, i64 noundef 0, i64 noundef 0)
  br label %110

71:                                               ; preds = %51, %46
  %72 = load ptr, ptr %6, align 8, !tbaa !83
  %73 = getelementptr inbounds nuw %struct.iter_t, ptr %72, i32 0, i32 5
  %74 = load i64, ptr %73, align 8, !tbaa !37
  %75 = load ptr, ptr %6, align 8, !tbaa !83
  %76 = getelementptr inbounds nuw %struct.iter_t, ptr %75, i32 0, i32 6
  store i64 %74, ptr %76, align 8, !tbaa !40
  %77 = load i64, ptr %4, align 8, !tbaa !11
  %78 = load ptr, ptr %5, align 8, !tbaa !13
  %79 = load i8, ptr @display_root_g, align 1, !tbaa !15, !range !33, !noundef !34
  %80 = trunc i8 %79 to i1
  br i1 %80, label %86, label %81

81:                                               ; preds = %71
  %82 = load ptr, ptr %6, align 8, !tbaa !83
  %83 = getelementptr inbounds nuw %struct.iter_t, ptr %82, i32 0, i32 3
  %84 = load i8, ptr %83, align 8, !tbaa !44, !range !33, !noundef !34
  %85 = trunc i8 %84 to i1
  br label %86

86:                                               ; preds = %81, %71
  %87 = phi i1 [ true, %71 ], [ %85, %81 ]
  %88 = load i8, ptr @recursive_g, align 1, !tbaa !15, !range !33, !noundef !34
  %89 = trunc i8 %88 to i1
  %90 = load ptr, ptr %6, align 8, !tbaa !83
  %91 = call i32 @h5trav_visit(i64 noundef %77, ptr noundef %78, i1 noundef zeroext %87, i1 noundef zeroext %89, ptr noundef @list_obj, ptr noundef @list_lnk, ptr noundef %90, i32 noundef 3)
  %92 = load ptr, ptr %6, align 8, !tbaa !83
  %93 = getelementptr inbounds nuw %struct.iter_t, ptr %92, i32 0, i32 3
  %94 = load i8, ptr %93, align 8, !tbaa !44, !range !33, !noundef !34
  %95 = trunc i8 %94 to i1
  br i1 %95, label %101, label %96

96:                                               ; preds = %86
  %97 = load ptr, ptr %6, align 8, !tbaa !83
  %98 = getelementptr inbounds nuw %struct.iter_t, ptr %97, i32 0, i32 2
  %99 = load i64, ptr %98, align 8, !tbaa !43
  %100 = call i32 @H5Gclose(i64 noundef %99)
  br label %101

101:                                              ; preds = %96, %86
  br label %109

102:                                              ; preds = %43, %39
  %103 = load i64, ptr %4, align 8, !tbaa !11
  %104 = load ptr, ptr %6, align 8, !tbaa !83
  %105 = getelementptr inbounds nuw %struct.iter_t, ptr %104, i32 0, i32 2
  store i64 %103, ptr %105, align 8, !tbaa !43
  %106 = load ptr, ptr %5, align 8, !tbaa !13
  %107 = load ptr, ptr %6, align 8, !tbaa !83
  %108 = call i32 @list_obj(ptr noundef %106, ptr noundef %8, ptr noundef null, ptr noundef %107)
  br label %109

109:                                              ; preds = %102, %101
  br label %110

110:                                              ; preds = %109, %58, %31
  call void @h5tools_str_close(ptr noundef %10)
  %111 = load i32, ptr %7, align 4, !tbaa !4
  call void @llvm.lifetime.end.p0(i64 8, ptr %12) #12
  call void @llvm.lifetime.end.p0(i64 1120, ptr %11) #12
  call void @llvm.lifetime.end.p0(i64 24, ptr %10) #12
  call void @llvm.lifetime.end.p0(i64 8, ptr %9) #12
  call void @llvm.lifetime.end.p0(i64 72, ptr %8) #12
  call void @llvm.lifetime.end.p0(i64 4, ptr %7) #12
  ret i32 %111
}