; Function Attrs: nounwind uwtable
define internal fastcc range(i32 -1, 1) i32 @visit_obj(i64 noundef %0, ptr noundef %1, ptr noundef %2) unnamed_addr #4 {
  %4 = alloca %struct.H5O_info2_t, align 8
  %5 = alloca i64, align 8
  %6 = alloca %struct.h5tools_str_t, align 8
  %7 = alloca %struct.h5tools_context_t, align 8
  call void @llvm.lifetime.start.p0(i64 72, ptr nonnull %4) #20
  call void @llvm.lifetime.start.p0(i64 8, ptr nonnull %5) #20
  store i64 0, ptr %5, align 8, !tbaa !44
  call void @llvm.lifetime.start.p0(i64 24, ptr nonnull %6) #20
  call void @llvm.lifetime.start.p0(i64 1120, ptr nonnull %7) #20
  call void @llvm.memset.p0.i64(ptr noundef nonnull align 8 dereferenceable(1120) %7, i8 0, i64 1120, i1 false)
  call void @llvm.memset.p0.i64(ptr noundef nonnull align 8 dereferenceable(24) %6, i8 0, i64 24, i1 false)
  %8 = call ptr @h5tools_str_reset(ptr noundef nonnull %6) #20
  %9 = call i32 @H5Oget_info_by_name3(i64 noundef %0, ptr noundef %1, ptr noundef nonnull %4, i32 noundef 3, i64 noundef 0) #20
  %10 = icmp slt i32 %9, 0
  br i1 %10, label %11, label %44

11:                                               ; preds = %3
  %12 = getelementptr inbounds nuw i8, ptr %2, i64 24
  %13 = load i8, ptr %12, align 8, !tbaa !42, !range !45, !noundef !46
  %14 = trunc nuw i8 %13 to i1
  br i1 %14, label %15, label %17

15:                                               ; preds = %11
  %16 = call ptr (ptr, ptr, ...) @h5tools_str_append(ptr noundef nonnull %6, ptr noundef nonnull @.str.340) #20
  store i8 0, ptr %12, align 8, !tbaa !42
  br label %39

17:                                               ; preds = %11
  %18 = load i8, ptr @show_file_name_g, align 1, !tbaa !31, !range !45, !noundef !46
  %19 = trunc nuw i8 %18 to i1
  br i1 %19, label %20, label %26

20:                                               ; preds = %17
  %21 = load ptr, ptr %2, align 8, !tbaa !39
  %22 = getelementptr inbounds nuw i8, ptr %2, i64 48
  %23 = load i64, ptr %22, align 8, !tbaa !38
  %24 = getelementptr inbounds nuw i8, ptr %1, i64 %23
  %25 = call i32 (ptr, i64, ptr, ...) @snprintf(ptr noundef nonnull dereferenceable(1) @print_obj_name.fullname, i64 noundef 2048, ptr noundef nonnull @.str.338, ptr noundef %21, ptr noundef %24) #20
  br label %30

26:                                               ; preds = %17
  %27 = getelementptr inbounds nuw i8, ptr %2, i64 48
  %28 = load i64, ptr %27, align 8, !tbaa !38
  %29 = getelementptr inbounds nuw i8, ptr %1, i64 %28
  br label %30

30:                                               ; preds = %26, %20
  %.016.i = phi ptr [ @print_obj_name.fullname, %20 ], [ %29, %26 ]
  %.b18.i = load i1, ptr @fullname_g, align 1
  br i1 %.b18.i, label %print_obj_name.exit, label %31

31:                                               ; preds = %30
  %32 = call ptr @strrchr(ptr noundef nonnull dereferenceable(1) %.016.i, i32 noundef 47) #22
  %33 = icmp eq ptr %32, null
  %34 = getelementptr inbounds nuw i8, ptr %32, i64 1
  %.0.i = select i1 %33, ptr %.016.i, ptr %34
  br label %print_obj_name.exit

print_obj_name.exit:                              ; preds = %30, %31
  %.0.sink.i = phi ptr [ %.0.i, %31 ], [ %.016.i, %30 ]
  %35 = call fastcc i32 @print_string(ptr noundef nonnull %6, ptr noundef %.0.sink.i, i1 noundef zeroext true)
  %36 = sub nsw i32 24, %35
  %37 = call i32 @llvm.smax.i32(i32 %36, i32 0)
  %38 = call ptr (ptr, ptr, ...) @h5tools_str_append(ptr noundef nonnull %6, ptr noundef nonnull @.str.339, i32 noundef %37, ptr noundef nonnull @.str.45) #20
  br label %39

39:                                               ; preds = %print_obj_name.exit, %15
  %40 = load ptr, ptr @rawoutstream, align 8, !tbaa !26
  %41 = load i32, ptr getelementptr inbounds nuw (i8, ptr @ls_dataformat, i64 320), align 8, !tbaa !47
  %42 = zext i32 %41 to i64
  %43 = call zeroext i1 @h5tools_render_element(ptr noundef %40, ptr noundef nonnull @ls_dataformat, ptr noundef nonnull %7, ptr noundef nonnull %6, ptr noundef nonnull %5, i64 noundef %42, i64 noundef 0, i64 noundef 0) #20
  br label %83

44:                                               ; preds = %3
  %45 = getelementptr inbounds nuw i8, ptr %4, i64 24
  %46 = load i32, ptr %45, align 8, !tbaa !105
  %47 = icmp eq i32 %46, 0
  br i1 %47, label %48, label %80

48:                                               ; preds = %44
  %.b31 = load i1, ptr @grp_literal_g, align 1
  br i1 %.b31, label %80, label %49

49:                                               ; preds = %48
  %50 = getelementptr inbounds nuw i8, ptr %2, i64 24
  %51 = load i8, ptr %50, align 8, !tbaa !42, !range !45, !noundef !46
  %52 = trunc nuw i8 %51 to i1
  br i1 %52, label %64, label %53

53:                                               ; preds = %49
  %54 = call i64 @H5Gopen2(i64 noundef %0, ptr noundef %1, i64 noundef 0) #20
  %55 = getelementptr inbounds nuw i8, ptr %2, i64 16
  store i64 %54, ptr %55, align 8, !tbaa !41
  %56 = icmp slt i64 %54, 0
  br i1 %56, label %57, label %64

57:                                               ; preds = %53
  %58 = load ptr, ptr %2, align 8, !tbaa !39
  %59 = call ptr (ptr, ptr, ...) @h5tools_str_append(ptr noundef nonnull %6, ptr noundef nonnull @.str.341, ptr noundef %58, ptr noundef %1) #20
  %60 = load ptr, ptr @rawoutstream, align 8, !tbaa !26
  %61 = load i32, ptr getelementptr inbounds nuw (i8, ptr @ls_dataformat, i64 320), align 8, !tbaa !47
  %62 = zext i32 %61 to i64
  %63 = call zeroext i1 @h5tools_render_element(ptr noundef %60, ptr noundef nonnull @ls_dataformat, ptr noundef nonnull %7, ptr noundef nonnull %6, ptr noundef nonnull %5, i64 noundef %62, i64 noundef 0, i64 noundef 0) #20
  br label %83

64:                                               ; preds = %53, %49
  %65 = getelementptr inbounds nuw i8, ptr %2, i64 40
  %66 = load i64, ptr %65, align 8, !tbaa !34
  %67 = getelementptr inbounds nuw i8, ptr %2, i64 48
  store i64 %66, ptr %67, align 8, !tbaa !38
  %.b2829 = load i1, ptr @display_root_g, align 1
  br i1 %.b2829, label %71, label %68

68:                                               ; preds = %64
  %69 = load i8, ptr %50, align 8, !tbaa !42, !range !45, !noundef !46
  %70 = trunc nuw i8 %69 to i1
  br label %71

71:                                               ; preds = %68, %64
  %72 = phi i1 [ true, %64 ], [ %70, %68 ]
  %.b30 = load i1, ptr @recursive_g, align 1
  %73 = call i32 @h5trav_visit(i64 noundef %0, ptr noundef %1, i1 noundef zeroext %72, i1 noundef zeroext %.b30, ptr noundef nonnull @list_obj, ptr noundef nonnull @list_lnk, ptr noundef nonnull %2, i32 noundef 3) #20
  %74 = load i8, ptr %50, align 8, !tbaa !42, !range !45, !noundef !46
  %75 = trunc nuw i8 %74 to i1
  br i1 %75, label %83, label %76

76:                                               ; preds = %71
  %77 = getelementptr inbounds nuw i8, ptr %2, i64 16
  %78 = load i64, ptr %77, align 8, !tbaa !41
  %79 = call i32 @H5Gclose(i64 noundef %78) #20
  br label %83

80:                                               ; preds = %48, %44
  %81 = getelementptr inbounds nuw i8, ptr %2, i64 16
  store i64 %0, ptr %81, align 8, !tbaa !41
  %82 = call i32 @list_obj(ptr noundef %1, ptr noundef nonnull %4, ptr noundef null, ptr noundef %2)
  br label %83

83:                                               ; preds = %80, %76, %71, %57, %39
  %.0 = phi i32 [ -1, %39 ], [ 0, %80 ], [ 0, %71 ], [ 0, %76 ], [ 0, %57 ]
  call void @h5tools_str_close(ptr noundef nonnull %6) #20
  call void @llvm.lifetime.end.p0(i64 1120, ptr nonnull %7) #20
  call void @llvm.lifetime.end.p0(i64 24, ptr nonnull %6) #20
  call void @llvm.lifetime.end.p0(i64 8, ptr nonnull %5) #20
  call void @llvm.lifetime.end.p0(i64 72, ptr nonnull %4) #20
  ret i32 %.0
}